#include <math.h>
#include <stdio.h>
#include <stdlib.h>
#include <string.h>

int main()
{int n,i=1,j=0,m=0;
scanf("%d\n",&n);
int a[n];
scanf("%d",&a[0]);
while(i<n)
{scanf(" %d",&a[i]);i++;}
printf("%d",a[0]);i=1;
while(i<n)
{ j=i-1;m=0;  while(j>=0)
   {if(a[i]==a[j])m=1;j--;}
   if(m==0)printf(",%d",a[i]);i++;}
return 0;
}       